; Function Attrs: mustprogress uwtable
define void @_ZNK32pxrInternal_v0_24__pxrReserved__13UsdStageCache12GetDebugNameB5cxx11Ev(ptr dead_on_unwind noalias writable sret(%"class.std::__cxx11::basic_string") align 8 %0, ptr noundef nonnull align 8 dereferenceable(48) %1) local_unnamed_addr #2 align 2 personality ptr @__gxx_personality_v0 {
  %3 = getelementptr inbounds nuw i8, ptr %1, i64 8
  %4 = tail call noundef i32 @pthread_mutex_lock(ptr noundef nonnull %3) #18
  %.not.i.i = icmp eq i32 %4, 0
  br i1 %.not.i.i, label %_ZNSt10lock_guardISt5mutexEC2ERS0_.exit, label %5

5:                                                ; preds = %2
  tail call void @_ZSt20__throw_system_errori(i32 noundef %4) #19
  unreachable

_ZNSt10lock_guardISt5mutexEC2ERS0_.exit:          ; preds = %2
  %6 = load ptr, ptr %1, align 8
  %7 = getelementptr inbounds nuw i8, ptr %6, i64 192
  invoke void @_ZNSt7__cxx1112basic_stringIcSt11char_traitsIcESaIcEEC1ERKS4_(ptr noundef nonnull align 8 dereferenceable(32) %0, ptr noundef nonnull align 8 dereferenceable(32) %7)
          to label %8 unwind label %10

8:                                                ; preds = %_ZNSt10lock_guardISt5mutexEC2ERS0_.exit
  %9 = tail call noundef i32 @pthread_mutex_unlock(ptr noundef nonnull %3) #18
  ret void

10:                                               ; preds = %_ZNSt10lock_guardISt5mutexEC2ERS0_.exit
  %11 = landingpad { ptr, i32 }
          cleanup
  %12 = tail call noundef i32 @pthread_mutex_unlock(ptr noundef nonnull %3) #18
  resume { ptr, i32 } %11
}